; Function Attrs: nounwind uwtable
define i32 @php_mt_rand() local_unnamed_addr #0 {
  %1 = load ptr, ptr getelementptr inbounds (%struct._php_random_algo, ptr @php_random_algo_mt19937, i64 0, i32 1), align 8
  %2 = load ptr, ptr getelementptr inbounds (%struct._zend_random_globals, ptr @random_globals, i64 0, i32 2), align 8
  %3 = load i8, ptr getelementptr inbounds (%struct._zend_random_globals, ptr @random_globals, i64 0, i32 3), align 8
  %4 = and i8 %3, 1
  %.not.i = icmp eq i8 %4, 0
  br i1 %.not.i, label %5, label %php_random_default_status.exit

5:                                                ; preds = %0
  tail call void @php_random_mt19937_seed_default(ptr noundef %2) #13
  store i8 1, ptr getelementptr inbounds (%struct._zend_random_globals, ptr @random_globals, i64 0, i32 3), align 8
  br label %php_random_default_status.exit

php_random_default_status.exit:                   ; preds = %0, %5
  %6 = tail call { i64, i64 } %1(ptr noundef %2) #13
  %7 = extractvalue { i64, i64 } %6, 0
  %8 = trunc i64 %7 to i32
  ret i32 %8
}